target datalayout = "e-m:e-p270:32:32-p271:32:32-p272:64:64-i64:64-i128:128-f80:128-n8:16:32:64-S128"
target triple = "x86_64-pc-linux-gnu"

; Function Attrs: nounwind null_pointer_is_valid sspstrong uwtable
define internal i32 @get_native_type_cdr_length(i64 noundef %0) #4 {
  %2 = alloca i64, align 8
  %3 = alloca i32, align 4
  store i64 %0, ptr %2, align 8
  call void @llvm.lifetime.start.p0(i64 4, ptr %3) #14
  store i32 0, ptr %3, align 4
  %4 = load i64, ptr %2, align 8
  switch i64 %4, label %16 [
    i64 1, label %5
    i64 12, label %6
    i64 2, label %6
    i64 3, label %7
    i64 4, label %8
    i64 14, label %9
    i64 5, label %9
    i64 6, label %10
    i64 7, label %11
    i64 8, label %12
    i64 9, label %13
    i64 10, label %14
    i64 11, label %15
  ]

5:                                                ; preds = %1
  store i32 1, ptr %3, align 4
  br label %17

6:                                                ; preds = %1, %1
  store i32 1, ptr %3, align 4
  br label %17

7:                                                ; preds = %1
  store i32 2, ptr %3, align 4
  br label %17

8:                                                ; preds = %1
  store i32 2, ptr %3, align 4
  br label %17

9:                                                ; preds = %1, %1
  store i32 4, ptr %3, align 4
  br label %17

10:                                               ; preds = %1
  store i32 4, ptr %3, align 4
  br label %17

11:                                               ; preds = %1
  store i32 8, ptr %3, align 4
  br label %17

12:                                               ; preds = %1
  store i32 8, ptr %3, align 4
  br label %17

13:                                               ; preds = %1
  store i32 4, ptr %3, align 4
  br label %17

14:                                               ; preds = %1
  store i32 8, ptr %3, align 4
  br label %17

15:                                               ; preds = %1
  store i32 16, ptr %3, align 4
  br label %17

16:                                               ; preds = %1
  store i32 1, ptr %3, align 4
  br label %17

17:                                               ; preds = %16, %15, %14, %13, %12, %11, %10, %9, %8, %7, %6, %5
  %18 = load i32, ptr %3, align 4
  call void @llvm.lifetime.end.p0(i64 4, ptr %3) #14
  ret i32 %18
}