; Function Attrs: mustprogress nofree norecurse nosync nounwind null_pointer_is_valid sspstrong willreturn memory(none) uwtable
define internal fastcc range(i32 1, 17) i32 @get_native_type_cdr_length(i64 noundef %0) unnamed_addr #13 {
  %switch.tableidx = add i64 %0, -3
  %2 = icmp ult i64 %switch.tableidx, 12
  br i1 %2, label %switch.lookup, label %3

switch.lookup:                                    ; preds = %1
  %switch.gep = getelementptr inbounds nuw [12 x i32], ptr @switch.table.get_native_type_cdr_length, i64 0, i64 %switch.tableidx
  %switch.load = load i32, ptr %switch.gep, align 4
  br label %3

3:                                                ; preds = %1, %switch.lookup
  %.0 = phi i32 [ %switch.load, %switch.lookup ], [ 1, %1 ]
  ret i32 %.0
}